; Function Attrs: mustprogress nofree nounwind memory(readwrite, inaccessiblemem: write) uwtable
define void @_ZN23colvarproxy_atom_groups37compute_rms_atom_groups_applied_forceEv(ptr noundef nonnull align 8 captures(none) dereferenceable(192) %0) local_unnamed_addr #19 align 2 {
  %2 = getelementptr inbounds nuw i8, ptr %0, i64 152
  %3 = load ptr, ptr %2, align 8, !tbaa !136
  %4 = getelementptr inbounds nuw i8, ptr %0, i64 160
  %5 = load ptr, ptr %4, align 8, !tbaa !136
  %.not1213.i = icmp eq ptr %3, %5
  br i1 %.not1213.i, label %_Z19compute_norm2_statsIN12colvarmodule7rvectorELi0ELb0EEdRKSt6vectorIT_SaIS3_EEPi.exit, label %.lr.ph.i

.lr.ph.i:                                         ; preds = %1, %.lr.ph.i
  %.015.i = phi double [ %14, %.lr.ph.i ], [ 0.000000e+00, %1 ]
  %.sroa.07.014.i = phi ptr [ %15, %.lr.ph.i ], [ %3, %1 ]
  %6 = load double, ptr %.sroa.07.014.i, align 8, !tbaa !137
  %7 = getelementptr inbounds nuw i8, ptr %.sroa.07.014.i, i64 8
  %8 = load double, ptr %7, align 8, !tbaa !138
  %9 = fmul double %8, %8
  %10 = tail call double @llvm.fmuladd.f64(double %6, double %6, double %9)
  %11 = getelementptr inbounds nuw i8, ptr %.sroa.07.014.i, i64 16
  %12 = load double, ptr %11, align 8, !tbaa !139
  %13 = tail call noundef double @llvm.fmuladd.f64(double %12, double %12, double %10)
  %14 = fadd double %.015.i, %13
  %15 = getelementptr inbounds nuw i8, ptr %.sroa.07.014.i, i64 24
  %.not12.i = icmp eq ptr %15, %5
  br i1 %.not12.i, label %_Z19compute_norm2_statsIN12colvarmodule7rvectorELi0ELb0EEdRKSt6vectorIT_SaIS3_EEPi.exit, label %.lr.ph.i, !llvm.loop !140

_Z19compute_norm2_statsIN12colvarmodule7rvectorELi0ELb0EEdRKSt6vectorIT_SaIS3_EEPi.exit: ; preds = %.lr.ph.i, %1
  %.0.lcssa.i = phi double [ 0.000000e+00, %1 ], [ %14, %.lr.ph.i ]
  %16 = ptrtoint ptr %5 to i64
  %17 = ptrtoint ptr %3 to i64
  %18 = sub i64 %16, %17
  %19 = sdiv exact i64 %18, 24
  %20 = uitofp i64 %19 to double
  %21 = fdiv double %.0.lcssa.i, %20
  %.1.i = select i1 %.not1213.i, double %.0.lcssa.i, double %21
  %22 = tail call noundef double @sqrt(double noundef %.1.i) #24, !tbaa !33
  %23 = getelementptr inbounds nuw i8, ptr %0, i64 176
  store double %22, ptr %23, align 8, !tbaa !158
  ret void
}